target datalayout = "e-m:e-p270:32:32-p271:32:32-p272:64:64-i64:64-i128:128-f80:128-n8:16:32:64-S128"
target triple = "x86_64-pc-linux-gnu"

; Function Attrs: nounwind sspstrong uwtable
define internal i32 @utf32le_mbc_to_code(ptr noundef %0, ptr noundef %1, ptr noundef %2) #0 {
  %4 = alloca ptr, align 8
  %5 = alloca ptr, align 8
  %6 = alloca ptr, align 8
  store ptr %0, ptr %4, align 8, !tbaa !13
  store ptr %1, ptr %5, align 8, !tbaa !13
  store ptr %2, ptr %6, align 8, !tbaa !14
  %7 = load ptr, ptr %4, align 8, !tbaa !13
  %8 = getelementptr inbounds i8, ptr %7, i64 3
  %9 = load i8, ptr %8, align 1, !tbaa !17
  %10 = zext i8 %9 to i32
  %11 = mul nsw i32 %10, 256
  %12 = load ptr, ptr %4, align 8, !tbaa !13
  %13 = getelementptr inbounds i8, ptr %12, i64 2
  %14 = load i8, ptr %13, align 1, !tbaa !17
  %15 = zext i8 %14 to i32
  %16 = add nsw i32 %11, %15
  %17 = mul nsw i32 %16, 256
  %18 = load ptr, ptr %4, align 8, !tbaa !13
  %19 = getelementptr inbounds i8, ptr %18, i64 1
  %20 = load i8, ptr %19, align 1, !tbaa !17
  %21 = zext i8 %20 to i32
  %22 = add nsw i32 %17, %21
  %23 = mul nsw i32 %22, 256
  %24 = load ptr, ptr %4, align 8, !tbaa !13
  %25 = getelementptr inbounds i8, ptr %24, i64 0
  %26 = load i8, ptr %25, align 1, !tbaa !17
  %27 = zext i8 %26 to i32
  %28 = add nsw i32 %23, %27
  ret i32 %28
}