; Function Attrs: mustprogress nofree norecurse nosync nounwind sspstrong willreturn memory(argmem: read) uwtable
define internal range(i32 0, -2147483648) i32 @utf32le_mbc_to_code(ptr noundef readonly captures(none) %0, ptr readnone captures(none) %1, ptr readnone captures(none) %2) #2 {
  %4 = getelementptr i8, ptr %0, i64 2
  %5 = load i16, ptr %4, align 1
  %6 = zext i16 %5 to i32
  %7 = getelementptr inbounds nuw i8, ptr %0, i64 1
  %8 = load i8, ptr %7, align 1, !tbaa !6
  %9 = zext i8 %8 to i32
  %10 = shl nuw i32 %6, 16
  %11 = shl nuw nsw i32 %9, 8
  %12 = or disjoint i32 %10, %11
  %13 = load i8, ptr %0, align 1, !tbaa !6
  %14 = zext i8 %13 to i32
  %15 = or disjoint i32 %12, %14
  ret i32 %15
}